target datalayout = "e-m:e-p270:32:32-p271:32:32-p272:64:64-i64:64-i128:128-f80:128-n8:16:32:64-S128"
target triple = "x86_64-unknown-linux-gnu"

%struct.sdshdr8 = type { i8, i8, i8, [0 x i8] }
%struct.sdshdr16 = type <{ i16, i16, i8, [0 x i8] }>
%struct.sdshdr32 = type <{ i32, i32, i8, [0 x i8] }>
%struct.sdshdr64 = type <{ i64, i64, i8, [0 x i8] }>

@SDS_NOINIT = dso_local global ptr @.str, align 8
@.str.1 = private unnamed_addr constant [31 x i8] c"initlen + hdrlen + 1 > initlen\00", align 1
@.str.2 = private unnamed_addr constant [6 x i8] c"sds.c\00", align 1

; Function Attrs: nounwind uwtable
define internal i64 @sdsTypeMaxSize(i8 noundef signext %type) #0 {
entry:
  %retval = alloca i64, align 8
  %type.addr = alloca i8, align 1
  store i8 %type, ptr %type.addr, align 1
  %0 = load i8, ptr %type.addr, align 1
  %conv = sext i8 %0 to i32
  %cmp = icmp eq i32 %conv, 0
  br i1 %cmp, label %if.then, label %if.end

if.then:                                          ; preds = %entry
  store i64 31, ptr %retval, align 8
  br label %return

if.end:                                           ; preds = %entry
  %1 = load i8, ptr %type.addr, align 1
  %conv2 = sext i8 %1 to i32
  %cmp3 = icmp eq i32 %conv2, 1
  br i1 %cmp3, label %if.then5, label %if.end6

if.then5:                                         ; preds = %if.end
  store i64 255, ptr %retval, align 8
  br label %return

if.end6:                                          ; preds = %if.end
  %2 = load i8, ptr %type.addr, align 1
  %conv7 = sext i8 %2 to i32
  %cmp8 = icmp eq i32 %conv7, 2
  br i1 %cmp8, label %if.then10, label %if.end11

if.then10:                                        ; preds = %if.end6
  store i64 65535, ptr %retval, align 8
  br label %return

if.end11:                                         ; preds = %if.end6
  %3 = load i8, ptr %type.addr, align 1
  %conv12 = sext i8 %3 to i32
  %cmp13 = icmp eq i32 %conv12, 3
  br i1 %cmp13, label %if.then15, label %if.end16

if.then15:                                        ; preds = %if.end11
  store i64 4294967295, ptr %retval, align 8
  br label %return

if.end16:                                         ; preds = %if.end11
  store i64 -1, ptr %retval, align 8
  br label %return

return:                                           ; preds = %if.end16, %if.then15, %if.then10, %if.then5, %if.then
  %4 = load i64, ptr %retval, align 8
  ret i64 %4
}

; Function Attrs: nounwind uwtable
define internal i32 @sdsHdrSize(i8 noundef signext %type) #0 {
entry:
  %retval = alloca i32, align 4
  %type.addr = alloca i8, align 1
  store i8 %type, ptr %type.addr, align 1
  %0 = load i8, ptr %type.addr, align 1
  %conv = sext i8 %0 to i32
  %and = and i32 %conv, 7
  switch i32 %and, label %sw.epilog [
    i32 0, label %sw.bb
    i32 1, label %sw.bb1
    i32 2, label %sw.bb2
    i32 3, label %sw.bb3
    i32 4, label %sw.bb4
  ]

sw.bb:                                            ; preds = %entry
  store i32 1, ptr %retval, align 4
  br label %return

sw.bb1:                                           ; preds = %entry
  store i32 3, ptr %retval, align 4
  br label %return

sw.bb2:                                           ; preds = %entry
  store i32 5, ptr %retval, align 4
  br label %return

sw.bb3:                                           ; preds = %entry
  store i32 9, ptr %retval, align 4
  br label %return

sw.bb4:                                           ; preds = %entry
  store i32 17, ptr %retval, align 4
  br label %return

sw.epilog:                                        ; preds = %entry
  store i32 0, ptr %retval, align 4
  br label %return

return:                                           ; preds = %sw.epilog, %sw.bb4, %sw.bb3, %sw.bb2, %sw.bb1, %sw.bb
  %1 = load i32, ptr %retval, align 4
  ret i32 %1
}

; Function Attrs: nounwind uwtable
define internal signext i8 @sdsReqType(i64 noundef %string_size) #0 {
entry:
  %retval = alloca i8, align 1
  %string_size.addr = alloca i64, align 8
  store i64 %string_size, ptr %string_size.addr, align 8
  %0 = load i64, ptr %string_size.addr, align 8
  %cmp = icmp ult i64 %0, 32
  br i1 %cmp, label %if.then, label %if.end

if.then:                                          ; preds = %entry
  store i8 0, ptr %retval, align 1
  br label %return

if.end:                                           ; preds = %entry
  %1 = load i64, ptr %string_size.addr, align 8
  %cmp1 = icmp ult i64 %1, 256
  br i1 %cmp1, label %if.then2, label %if.end3

if.then2:                                         ; preds = %if.end
  store i8 1, ptr %retval, align 1
  br label %return

if.end3:                                          ; preds = %if.end
  %2 = load i64, ptr %string_size.addr, align 8
  %cmp4 = icmp ult i64 %2, 65536
  br i1 %cmp4, label %if.then5, label %if.end6

if.then5:                                         ; preds = %if.end3
  store i8 2, ptr %retval, align 1
  br label %return

if.end6:                                          ; preds = %if.end3
  %3 = load i64, ptr %string_size.addr, align 8
  %cmp7 = icmp ult i64 %3, 4294967296
  br i1 %cmp7, label %if.then8, label %if.end9

if.then8:                                         ; preds = %if.end6
  store i8 3, ptr %retval, align 1
  br label %return

if.end9:                                          ; preds = %if.end6
  store i8 4, ptr %retval, align 1
  br label %return

return:                                           ; preds = %if.end9, %if.then8, %if.then5, %if.then2, %if.then
  %4 = load i8, ptr %retval, align 1
  ret i8 %4
}

; Function Attrs: nounwind uwtable
define dso_local ptr @_sdsnewlen(ptr noundef %init, i64 noundef %initlen, i32 noundef %trymalloc) #0 {
entry:
  %retval = alloca ptr, align 8
  %init.addr = alloca ptr, align 8
  %initlen.addr = alloca i64, align 8
  %trymalloc.addr = alloca i32, align 4
  %sh = alloca ptr, align 8
  %s = alloca ptr, align 8
  %type = alloca i8, align 1
  %hdrlen = alloca i32, align 4
  %fp = alloca ptr, align 8
  %usable = alloca i64, align 8
  %sh50 = alloca ptr, align 8
  %sh55 = alloca ptr, align 8
  %sh62 = alloca ptr, align 8
  %sh69 = alloca ptr, align 8
  store ptr %init, ptr %init.addr, align 8
  store i64 %initlen, ptr %initlen.addr, align 8
  store i32 %trymalloc, ptr %trymalloc.addr, align 4
  %0 = load i64, ptr %initlen.addr, align 8
  %call = call signext i8 @sdsReqType(i64 noundef %0)
  store i8 %call, ptr %type, align 1
  %1 = load i8, ptr %type, align 1
  %conv = sext i8 %1 to i32
  %cmp = icmp eq i32 %conv, 0
  br i1 %cmp, label %land.lhs.true, label %if.end

land.lhs.true:                                    ; preds = %entry
  %2 = load i64, ptr %initlen.addr, align 8
  %cmp2 = icmp eq i64 %2, 0
  br i1 %cmp2, label %if.then, label %if.end

if.then:                                          ; preds = %land.lhs.true
  store i8 1, ptr %type, align 1
  br label %if.end

if.end:                                           ; preds = %if.then, %land.lhs.true, %entry
  %3 = load i8, ptr %type, align 1
  %call4 = call i32 @sdsHdrSize(i8 noundef signext %3)
  store i32 %call4, ptr %hdrlen, align 4
  %4 = load i64, ptr %initlen.addr, align 8
  %5 = load i32, ptr %hdrlen, align 4
  %conv5 = sext i32 %5 to i64
  %add = add i64 %4, %conv5
  %add6 = add i64 %add, 1
  %6 = load i64, ptr %initlen.addr, align 8
  %cmp7 = icmp ugt i64 %add6, %6
  %lnot = xor i1 %cmp7, true
  %lnot9 = xor i1 %lnot, true
  %lnot.ext = zext i1 %lnot9 to i32
  %conv10 = sext i32 %lnot.ext to i64
  %tobool = icmp ne i64 %conv10, 0
  br i1 %tobool, label %cond.true, label %cond.false

cond.true:                                        ; preds = %if.end
  br label %cond.end

cond.false:                                       ; preds = %if.end
  call void @_serverAssert(ptr noundef @.str.1, ptr noundef @.str.2, i32 noundef 115)
  call void @abort() #11
  unreachable

7:                                                ; No predecessors!
  br label %cond.end

cond.end:                                         ; preds = %7, %cond.true
  %8 = load i32, ptr %trymalloc.addr, align 4
  %tobool11 = icmp ne i32 %8, 0
  br i1 %tobool11, label %cond.true12, label %cond.false17

cond.true12:                                      ; preds = %cond.end
  %9 = load i32, ptr %hdrlen, align 4
  %conv13 = sext i32 %9 to i64
  %10 = load i64, ptr %initlen.addr, align 8
  %add14 = add i64 %conv13, %10
  %add15 = add i64 %add14, 1
  %call16 = call ptr @ztrymalloc_usable(i64 noundef %add15, ptr noundef %usable)
  br label %cond.end22

cond.false17:                                     ; preds = %cond.end
  %11 = load i32, ptr %hdrlen, align 4
  %conv18 = sext i32 %11 to i64
  %12 = load i64, ptr %initlen.addr, align 8
  %add19 = add i64 %conv18, %12
  %add20 = add i64 %add19, 1
  %call21 = call ptr @zmalloc_usable(i64 noundef %add20, ptr noundef %usable)
  br label %cond.end22

cond.end22:                                       ; preds = %cond.false17, %cond.true12
  %cond = phi ptr [ %call16, %cond.true12 ], [ %call21, %cond.false17 ]
  store ptr %cond, ptr %sh, align 8
  %13 = load ptr, ptr %sh, align 8
  %cmp23 = icmp eq ptr %13, null
  br i1 %cmp23, label %if.then25, label %if.end26

if.then25:                                        ; preds = %cond.end22
  store ptr null, ptr %retval, align 8
  br label %return

if.end26:                                         ; preds = %cond.end22
  %14 = load ptr, ptr %init.addr, align 8
  %15 = load ptr, ptr @SDS_NOINIT, align 8
  %cmp27 = icmp eq ptr %14, %15
  br i1 %cmp27, label %if.then29, label %if.else

if.then29:                                        ; preds = %if.end26
  store ptr null, ptr %init.addr, align 8
  br label %if.end36

if.else:                                          ; preds = %if.end26
  %16 = load ptr, ptr %init.addr, align 8
  %tobool30 = icmp ne ptr %16, null
  br i1 %tobool30, label %if.end35, label %if.then31

if.then31:                                        ; preds = %if.else
  %17 = load ptr, ptr %sh, align 8
  %18 = load i32, ptr %hdrlen, align 4
  %conv32 = sext i32 %18 to i64
  %19 = load i64, ptr %initlen.addr, align 8
  %add33 = add i64 %conv32, %19
  %add34 = add i64 %add33, 1
  call void @llvm.memset.p0.i64(ptr align 1 %17, i8 0, i64 %add34, i1 false)
  br label %if.end35

if.end35:                                         ; preds = %if.then31, %if.else
  br label %if.end36

if.end36:                                         ; preds = %if.end35, %if.then29
  %20 = load ptr, ptr %sh, align 8
  %21 = load i32, ptr %hdrlen, align 4
  %idx.ext = sext i32 %21 to i64
  %add.ptr = getelementptr inbounds i8, ptr %20, i64 %idx.ext
  store ptr %add.ptr, ptr %s, align 8
  %22 = load ptr, ptr %s, align 8
  %add.ptr37 = getelementptr inbounds i8, ptr %22, i64 -1
  store ptr %add.ptr37, ptr %fp, align 8
  %23 = load i64, ptr %usable, align 8
  %24 = load i32, ptr %hdrlen, align 4
  %conv38 = sext i32 %24 to i64
  %sub = sub i64 %23, %conv38
  %sub39 = sub i64 %sub, 1
  store i64 %sub39, ptr %usable, align 8
  %25 = load i64, ptr %usable, align 8
  %26 = load i8, ptr %type, align 1
  %call40 = call i64 @sdsTypeMaxSize(i8 noundef signext %26)
  %cmp41 = icmp ugt i64 %25, %call40
  br i1 %cmp41, label %if.then43, label %if.end45

if.then43:                                        ; preds = %if.end36
  %27 = load i8, ptr %type, align 1
  %call44 = call i64 @sdsTypeMaxSize(i8 noundef signext %27)
  store i64 %call44, ptr %usable, align 8
  br label %if.end45

if.end45:                                         ; preds = %if.then43, %if.end36
  %28 = load i8, ptr %type, align 1
  %conv46 = sext i8 %28 to i32
  switch i32 %conv46, label %sw.epilog [
    i32 0, label %sw.bb
    i32 1, label %sw.bb49
    i32 2, label %sw.bb54
    i32 3, label %sw.bb61
    i32 4, label %sw.bb68
  ]

sw.bb:                                            ; preds = %if.end45
  %29 = load i8, ptr %type, align 1
  %conv47 = sext i8 %29 to i64
  %30 = load i64, ptr %initlen.addr, align 8
  %shl = shl i64 %30, 3
  %or = or i64 %conv47, %shl
  %conv48 = trunc i64 %or to i8
  %31 = load ptr, ptr %fp, align 8
  store i8 %conv48, ptr %31, align 1
  br label %sw.epilog

sw.bb49:                                          ; preds = %if.end45
  %32 = load ptr, ptr %s, align 8
  %add.ptr51 = getelementptr inbounds i8, ptr %32, i64 -3
  store ptr %add.ptr51, ptr %sh50, align 8
  %33 = load i64, ptr %initlen.addr, align 8
  %conv52 = trunc i64 %33 to i8
  %34 = load ptr, ptr %sh50, align 8
  %len = getelementptr inbounds %struct.sdshdr8, ptr %34, i32 0, i32 0
  store i8 %conv52, ptr %len, align 1
  %35 = load i64, ptr %usable, align 8
  %conv53 = trunc i64 %35 to i8
  %36 = load ptr, ptr %sh50, align 8
  %alloc = getelementptr inbounds %struct.sdshdr8, ptr %36, i32 0, i32 1
  store i8 %conv53, ptr %alloc, align 1
  %37 = load i8, ptr %type, align 1
  %38 = load ptr, ptr %fp, align 8
  store i8 %37, ptr %38, align 1
  br label %sw.epilog

sw.bb54:                                          ; preds = %if.end45
  %39 = load ptr, ptr %s, align 8
  %add.ptr56 = getelementptr inbounds i8, ptr %39, i64 -5
  store ptr %add.ptr56, ptr %sh55, align 8
  %40 = load i64, ptr %initlen.addr, align 8
  %conv57 = trunc i64 %40 to i16
  %41 = load ptr, ptr %sh55, align 8
  %len58 = getelementptr inbounds %struct.sdshdr16, ptr %41, i32 0, i32 0
  store i16 %conv57, ptr %len58, align 1
  %42 = load i64, ptr %usable, align 8
  %conv59 = trunc i64 %42 to i16
  %43 = load ptr, ptr %sh55, align 8
  %alloc60 = getelementptr inbounds %struct.sdshdr16, ptr %43, i32 0, i32 1
  store i16 %conv59, ptr %alloc60, align 1
  %44 = load i8, ptr %type, align 1
  %45 = load ptr, ptr %fp, align 8
  store i8 %44, ptr %45, align 1
  br label %sw.epilog

sw.bb61:                                          ; preds = %if.end45
  %46 = load ptr, ptr %s, align 8
  %add.ptr63 = getelementptr inbounds i8, ptr %46, i64 -9
  store ptr %add.ptr63, ptr %sh62, align 8
  %47 = load i64, ptr %initlen.addr, align 8
  %conv64 = trunc i64 %47 to i32
  %48 = load ptr, ptr %sh62, align 8
  %len65 = getelementptr inbounds %struct.sdshdr32, ptr %48, i32 0, i32 0
  store i32 %conv64, ptr %len65, align 1
  %49 = load i64, ptr %usable, align 8
  %conv66 = trunc i64 %49 to i32
  %50 = load ptr, ptr %sh62, align 8
  %alloc67 = getelementptr inbounds %struct.sdshdr32, ptr %50, i32 0, i32 1
  store i32 %conv66, ptr %alloc67, align 1
  %51 = load i8, ptr %type, align 1
  %52 = load ptr, ptr %fp, align 8
  store i8 %51, ptr %52, align 1
  br label %sw.epilog

sw.bb68:                                          ; preds = %if.end45
  %53 = load ptr, ptr %s, align 8
  %add.ptr70 = getelementptr inbounds i8, ptr %53, i64 -17
  store ptr %add.ptr70, ptr %sh69, align 8
  %54 = load i64, ptr %initlen.addr, align 8
  %55 = load ptr, ptr %sh69, align 8
  %len71 = getelementptr inbounds %struct.sdshdr64, ptr %55, i32 0, i32 0
  store i64 %54, ptr %len71, align 1
  %56 = load i64, ptr %usable, align 8
  %57 = load ptr, ptr %sh69, align 8
  %alloc72 = getelementptr inbounds %struct.sdshdr64, ptr %57, i32 0, i32 1
  store i64 %56, ptr %alloc72, align 1
  %58 = load i8, ptr %type, align 1
  %59 = load ptr, ptr %fp, align 8
  store i8 %58, ptr %59, align 1
  br label %sw.epilog

sw.epilog:                                        ; preds = %sw.bb68, %sw.bb61, %sw.bb54, %sw.bb49, %sw.bb, %if.end45
  %60 = load i64, ptr %initlen.addr, align 8
  %tobool73 = icmp ne i64 %60, 0
  br i1 %tobool73, label %land.lhs.true74, label %if.end77

land.lhs.true74:                                  ; preds = %sw.epilog
  %61 = load ptr, ptr %init.addr, align 8
  %tobool75 = icmp ne ptr %61, null
  br i1 %tobool75, label %if.then76, label %if.end77

if.then76:                                        ; preds = %land.lhs.true74
  %62 = load ptr, ptr %s, align 8
  %63 = load ptr, ptr %init.addr, align 8
  %64 = load i64, ptr %initlen.addr, align 8
  call void @llvm.memcpy.p0.p0.i64(ptr align 1 %62, ptr align 1 %63, i64 %64, i1 false)
  br label %if.end77

if.end77:                                         ; preds = %if.then76, %land.lhs.true74, %sw.epilog
  %65 = load ptr, ptr %s, align 8
  %66 = load i64, ptr %initlen.addr, align 8
  %arrayidx = getelementptr inbounds i8, ptr %65, i64 %66
  store i8 0, ptr %arrayidx, align 1
  %67 = load ptr, ptr %s, align 8
  store ptr %67, ptr %retval, align 8
  br label %return

return:                                           ; preds = %if.end77, %if.then25
  %68 = load ptr, ptr %retval, align 8
  ret ptr %68
}