; Function Attrs: nounwind uwtable
define dso_local ptr @_sdsnewlen(ptr noundef readonly %init, i64 noundef %initlen, i32 noundef %trymalloc) local_unnamed_addr #0 {
entry:
  %usable = alloca i64, align 8
  %cmp.i = icmp ult i64 %initlen, 32
  br i1 %cmp.i, label %sdsReqType.exit, label %if.end.i

if.end.i:                                         ; preds = %entry
  %cmp1.i = icmp ult i64 %initlen, 256
  br i1 %cmp1.i, label %sdsReqType.exit, label %if.end3.i

if.end3.i:                                        ; preds = %if.end.i
  %cmp4.i = icmp ult i64 %initlen, 65536
  br i1 %cmp4.i, label %sdsReqType.exit, label %if.end6.i

if.end6.i:                                        ; preds = %if.end3.i
  %cmp7.i = icmp ult i64 %initlen, 4294967296
  %..i = select i1 %cmp7.i, i8 3, i8 4
  br label %sdsReqType.exit

sdsReqType.exit:                                  ; preds = %entry, %if.end.i, %if.end3.i, %if.end6.i
  %retval.0.i = phi i8 [ 0, %entry ], [ 1, %if.end.i ], [ 2, %if.end3.i ], [ %..i, %if.end6.i ]
  %cmp = icmp eq i8 %retval.0.i, 0
  %cmp2 = icmp eq i64 %initlen, 0
  %or.cond = and i1 %cmp2, %cmp
  %spec.store.select = select i1 %or.cond, i8 1, i8 %retval.0.i
  %0 = zext nneg i8 %spec.store.select to i64
  %switch.gep = getelementptr inbounds [5 x i64], ptr @switch.table.sdsAllocSize, i64 0, i64 %0
  %switch.load = load i64, ptr %switch.gep, align 8
  %add = add i64 %initlen, 1
  %add6 = add i64 %add, %switch.load
  %cmp7 = icmp ugt i64 %add6, %initlen
  br i1 %cmp7, label %cond.end, label %cond.false

cond.false:                                       ; preds = %sdsReqType.exit
  tail call void @_serverAssert(ptr noundef nonnull @.str.1, ptr noundef nonnull @.str.2, i32 noundef 115) #25
  tail call void @abort() #26
  unreachable

cond.end:                                         ; preds = %sdsReqType.exit
  %tobool11.not = icmp eq i32 %trymalloc, 0
  br i1 %tobool11.not, label %cond.false17, label %cond.true12

cond.true12:                                      ; preds = %cond.end
  %call16 = call ptr @ztrymalloc_usable(i64 noundef %add6, ptr noundef nonnull %usable) #25
  br label %cond.end22

cond.false17:                                     ; preds = %cond.end
  %call21 = call ptr @zmalloc_usable(i64 noundef %add6, ptr noundef nonnull %usable) #25
  br label %cond.end22

cond.end22:                                       ; preds = %cond.false17, %cond.true12
  %cond = phi ptr [ %call16, %cond.true12 ], [ %call21, %cond.false17 ]
  %cmp23 = icmp eq ptr %cond, null
  br i1 %cmp23, label %return, label %if.end26

if.end26:                                         ; preds = %cond.end22
  %1 = load ptr, ptr @SDS_NOINIT, align 8
  %cmp27 = icmp eq ptr %1, %init
  br i1 %cmp27, label %if.end36, label %if.else

if.else:                                          ; preds = %if.end26
  %tobool30.not = icmp eq ptr %init, null
  br i1 %tobool30.not, label %if.then31, label %if.end36

if.then31:                                        ; preds = %if.else
  call void @llvm.memset.p0.i64(ptr nonnull align 1 %cond, i8 0, i64 %add6, i1 false)
  br label %if.end36

if.end36:                                         ; preds = %if.end26, %if.else, %if.then31
  %init.addr.0 = phi ptr [ %init, %if.else ], [ null, %if.then31 ], [ null, %if.end26 ]
  %add.ptr = getelementptr inbounds i8, ptr %cond, i64 %switch.load
  %add.ptr37 = getelementptr inbounds i8, ptr %add.ptr, i64 -1
  %2 = load i64, ptr %usable, align 8
  %3 = xor i64 %switch.load, -1
  %sub39 = add i64 %2, %3
  store i64 %sub39, ptr %usable, align 8
  %4 = icmp ult i8 %spec.store.select, 4
  br i1 %4, label %switch.lookup, label %sw.bb68

switch.lookup:                                    ; preds = %if.end36
  %5 = zext nneg i8 %spec.store.select to i64
  %switch.gep61 = getelementptr inbounds [4 x i64], ptr @switch.table._sdsnewlen.2, i64 0, i64 %5
  %switch.load62 = load i64, ptr %switch.gep61, align 8
  %cmp41 = icmp ugt i64 %sub39, %switch.load62
  br i1 %cmp41, label %switch.lookup63, label %if.end45

switch.lookup63:                                  ; preds = %switch.lookup
  %6 = zext nneg i8 %spec.store.select to i64
  %switch.gep64 = getelementptr inbounds [4 x i64], ptr @switch.table._sdsnewlen.2, i64 0, i64 %6
  %switch.load65 = load i64, ptr %switch.gep64, align 8
  store i64 %switch.load65, ptr %usable, align 8
  br label %if.end45

if.end45:                                         ; preds = %switch.lookup63, %switch.lookup
  switch i8 %spec.store.select, label %default.unreachable [
    i8 0, label %sw.bb
    i8 1, label %sw.bb49
    i8 2, label %sw.bb54
    i8 3, label %sw.bb61
  ]

sw.bb:                                            ; preds = %if.end45
  %initlen.tr = trunc i64 %initlen to i8
  %7 = shl i8 %initlen.tr, 3
  br label %sw.epilog

sw.bb49:                                          ; preds = %if.end45
  %add.ptr51 = getelementptr inbounds i8, ptr %add.ptr, i64 -3
  %conv52 = trunc i64 %initlen to i8
  store i8 %conv52, ptr %add.ptr51, align 1
  %8 = load i64, ptr %usable, align 8
  %conv53 = trunc i64 %8 to i8
  %alloc = getelementptr inbounds i8, ptr %add.ptr, i64 -2
  store i8 %conv53, ptr %alloc, align 1
  br label %sw.epilog

sw.bb54:                                          ; preds = %if.end45
  %add.ptr56 = getelementptr inbounds i8, ptr %add.ptr, i64 -5
  %conv57 = trunc i64 %initlen to i16
  store i16 %conv57, ptr %add.ptr56, align 1
  %9 = load i64, ptr %usable, align 8
  %conv59 = trunc i64 %9 to i16
  %alloc60 = getelementptr inbounds i8, ptr %add.ptr, i64 -3
  store i16 %conv59, ptr %alloc60, align 1
  br label %sw.epilog

sw.bb61:                                          ; preds = %if.end45
  %add.ptr63 = getelementptr inbounds i8, ptr %add.ptr, i64 -9
  %conv64 = trunc i64 %initlen to i32
  store i32 %conv64, ptr %add.ptr63, align 1
  %10 = load i64, ptr %usable, align 8
  %conv66 = trunc i64 %10 to i32
  %alloc67 = getelementptr inbounds i8, ptr %add.ptr, i64 -5
  store i32 %conv66, ptr %alloc67, align 1
  br label %sw.epilog

sw.bb68:                                          ; preds = %if.end36
  %add.ptr70 = getelementptr inbounds i8, ptr %add.ptr, i64 -17
  store i64 %initlen, ptr %add.ptr70, align 1
  %11 = load i64, ptr %usable, align 8
  %alloc72 = getelementptr inbounds i8, ptr %add.ptr, i64 -9
  store i64 %11, ptr %alloc72, align 1
  br label %sw.epilog

default.unreachable:                              ; preds = %if.end45
  unreachable

sw.epilog:                                        ; preds = %sw.bb68, %sw.bb61, %sw.bb54, %sw.bb49, %sw.bb
  %spec.store.select.sink = phi i8 [ %spec.store.select, %sw.bb68 ], [ 3, %sw.bb61 ], [ 2, %sw.bb54 ], [ 1, %sw.bb49 ], [ %7, %sw.bb ]
  store i8 %spec.store.select.sink, ptr %add.ptr37, align 1
  %tobool73 = icmp ne i64 %initlen, 0
  %tobool75 = icmp ne ptr %init.addr.0, null
  %or.cond1 = and i1 %tobool73, %tobool75
  br i1 %or.cond1, label %if.then76, label %if.end77

if.then76:                                        ; preds = %sw.epilog
  call void @llvm.memcpy.p0.p0.i64(ptr nonnull align 1 %add.ptr, ptr nonnull align 1 %init.addr.0, i64 %initlen, i1 false)
  br label %if.end77

if.end77:                                         ; preds = %if.then76, %sw.epilog
  %arrayidx = getelementptr inbounds i8, ptr %add.ptr, i64 %initlen
  store i8 0, ptr %arrayidx, align 1
  br label %return

return:                                           ; preds = %cond.end22, %if.end77
  %retval.0 = phi ptr [ %add.ptr, %if.end77 ], [ null, %cond.end22 ]
  ret ptr %retval.0
}